ARM GAS  C:\Users\Roland\AppData\Local\Temp\ccRBEjZs.s 			page 1


   1              		.cpu cortex-m0
   2              		.eabi_attribute 20, 1
   3              		.eabi_attribute 21, 1
   4              		.eabi_attribute 23, 3
   5              		.eabi_attribute 24, 1
   6              		.eabi_attribute 25, 1
   7              		.eabi_attribute 26, 1
   8              		.eabi_attribute 30, 6
   9              		.eabi_attribute 34, 0
  10              		.eabi_attribute 18, 4
  11              		.file	"led_funcs.c"
  12              		.text
  13              	.Ltext0:
  14              		.cfi_sections	.debug_frame
  15              		.align	1
  16              		.global	LED_Config
  17              		.syntax unified
  18              		.code	16
  19              		.thumb_func
  20              		.fpu softvfp
  21              		.type	LED_Config, %function
  22              	LED_Config:
  23              	.LFB42:
  24              		.file 1 "Application/led_funcs.c"
   1:Application/led_funcs.c **** #include "LPC11xx.h"
   2:Application/led_funcs.c **** // LED is connected to pin PIO1_5
   3:Application/led_funcs.c **** 
   4:Application/led_funcs.c **** void LED_Config(void)
   5:Application/led_funcs.c **** {
  25              		.loc 1 5 0
  26              		.cfi_startproc
  27              		@ args = 0, pretend = 0, frame = 0
  28              		@ frame_needed = 1, uses_anonymous_args = 0
  29 0000 80B5     		push	{r7, lr}
  30              	.LCFI0:
  31              		.cfi_def_cfa_offset 8
  32              		.cfi_offset 7, -8
  33              		.cfi_offset 14, -4
  34 0002 00AF     		add	r7, sp, #0
  35              	.LCFI1:
  36              		.cfi_def_cfa_register 7
   6:Application/led_funcs.c ****   // Enable clocks to GPIO and IO config block
   7:Application/led_funcs.c ****   // Bit 6: GPIO, bit 16: IO config
   8:Application/led_funcs.c ****   LPC_SYSCON->SYSAHBCLKCTRL |=  ((1<<16) | (1<<6));
  37              		.loc 1 8 0
  38 0004 114A     		ldr	r2, .L3
  39 0006 8023     		movs	r3, #128
  40 0008 D358     		ldr	r3, [r2, r3]
  41 000a 1049     		ldr	r1, .L3
  42 000c 104A     		ldr	r2, .L3+4
  43 000e 1343     		orrs	r3, r2
  44 0010 8022     		movs	r2, #128
  45 0012 8B50     		str	r3, [r1, r2]
   9:Application/led_funcs.c **** 	
  10:Application/led_funcs.c ****   __NOP(); // Short time delay
  46              		.loc 1 10 0
  47              		.syntax divided
ARM GAS  C:\Users\Roland\AppData\Local\Temp\ccRBEjZs.s 			page 2


  48              	@ 10 "Application/led_funcs.c" 1
  49 0014 C046     		nop
  50              	@ 0 "" 2
  11:Application/led_funcs.c ****   __NOP();
  51              		.loc 1 11 0
  52              	@ 11 "Application/led_funcs.c" 1
  53 0016 C046     		nop
  54              	@ 0 "" 2
  12:Application/led_funcs.c ****   __NOP();
  55              		.loc 1 12 0
  56              	@ 12 "Application/led_funcs.c" 1
  57 0018 C046     		nop
  58              	@ 0 "" 2
  13:Application/led_funcs.c **** 	
  14:Application/led_funcs.c ****   // PIO1_5 IO output config
  15:Application/led_funcs.c ****   //  bit[10]  - Open drain (0 = standard I/O, 1 = open drain)
  16:Application/led_funcs.c ****   //  bit[5]   - Hysteresis (0=disable, 1 =enable)
  17:Application/led_funcs.c ****   //  bit[4:3] - MODE(0=inactive, 1 =pulldown, 2=pullup, 3=repeater)
  18:Application/led_funcs.c ****   //  bit[2:0] - Function (0 = IO, 1=~RTS, 2=CT32B0_CAP0)
  19:Application/led_funcs.c ****   LPC_IOCON->PIO1_5 = (0<<10) | (0<<5) | (0<<3) | (0x0);
  59              		.loc 1 19 0
  60              		.thumb
  61              		.syntax unified
  62 001a 0E4A     		ldr	r2, .L3+8
  63 001c A023     		movs	r3, #160
  64 001e 0021     		movs	r1, #0
  65 0020 D150     		str	r1, [r2, r3]
  20:Application/led_funcs.c **** 
  21:Application/led_funcs.c ****   // Optional: Turn off clock to I/O Config block to save power
  22:Application/led_funcs.c ****   LPC_SYSCON->SYSAHBCLKCTRL &=  ~(1<<16);
  66              		.loc 1 22 0
  67 0022 0A4A     		ldr	r2, .L3
  68 0024 8023     		movs	r3, #128
  69 0026 D358     		ldr	r3, [r2, r3]
  70 0028 0849     		ldr	r1, .L3
  71 002a 0B4A     		ldr	r2, .L3+12
  72 002c 1340     		ands	r3, r2
  73 002e 8022     		movs	r2, #128
  74 0030 8B50     		str	r3, [r1, r2]
  23:Application/led_funcs.c **** 
  24:Application/led_funcs.c ****   // Set pin 8 as output
  25:Application/led_funcs.c ****   LPC_GPIO1->DIR = LPC_GPIO1->DIR | (1<<5);	
  75              		.loc 1 25 0
  76 0032 0A4A     		ldr	r2, .L3+16
  77 0034 8023     		movs	r3, #128
  78 0036 1B02     		lsls	r3, r3, #8
  79 0038 D358     		ldr	r3, [r2, r3]
  80 003a 0849     		ldr	r1, .L3+16
  81 003c 2022     		movs	r2, #32
  82 003e 1A43     		orrs	r2, r3
  83 0040 8023     		movs	r3, #128
  84 0042 1B02     		lsls	r3, r3, #8
  85 0044 CA50     		str	r2, [r1, r3]
  26:Application/led_funcs.c ****   return;
  86              		.loc 1 26 0
  87 0046 C046     		nop
  27:Application/led_funcs.c **** }
ARM GAS  C:\Users\Roland\AppData\Local\Temp\ccRBEjZs.s 			page 3


  88              		.loc 1 27 0
  89 0048 BD46     		mov	sp, r7
  90              		@ sp needed
  91 004a 80BD     		pop	{r7, pc}
  92              	.L4:
  93              		.align	2
  94              	.L3:
  95 004c 00800440 		.word	1074036736
  96 0050 40000100 		.word	65600
  97 0054 00400440 		.word	1074020352
  98 0058 FFFFFEFF 		.word	-65537
  99 005c 00000150 		.word	1342242816
 100              		.cfi_endproc
 101              	.LFE42:
 102              		.size	LED_Config, .-LED_Config
 103              		.align	1
 104              		.global	LED_Set
 105              		.syntax unified
 106              		.code	16
 107              		.thumb_func
 108              		.fpu softvfp
 109              		.type	LED_Set, %function
 110              	LED_Set:
 111              	.LFB43:
  28:Application/led_funcs.c **** 
  29:Application/led_funcs.c **** 
  30:Application/led_funcs.c **** void LED_Set(void)
  31:Application/led_funcs.c **** {
 112              		.loc 1 31 0
 113              		.cfi_startproc
 114              		@ args = 0, pretend = 0, frame = 0
 115              		@ frame_needed = 1, uses_anonymous_args = 0
 116 0060 80B5     		push	{r7, lr}
 117              	.LCFI2:
 118              		.cfi_def_cfa_offset 8
 119              		.cfi_offset 7, -8
 120              		.cfi_offset 14, -4
 121 0062 00AF     		add	r7, sp, #0
 122              	.LCFI3:
 123              		.cfi_def_cfa_register 7
  32:Application/led_funcs.c ****   // Set bit 5 output to 1
  33:Application/led_funcs.c ****   LPC_GPIO1->MASKED_ACCESS[1<<5] = (1<<5);
 124              		.loc 1 33 0
 125 0064 034A     		ldr	r2, .L7
 126 0066 8023     		movs	r3, #128
 127 0068 2021     		movs	r1, #32
 128 006a D150     		str	r1, [r2, r3]
  34:Application/led_funcs.c ****   return;
 129              		.loc 1 34 0
 130 006c C046     		nop
  35:Application/led_funcs.c **** }
 131              		.loc 1 35 0
 132 006e BD46     		mov	sp, r7
 133              		@ sp needed
 134 0070 80BD     		pop	{r7, pc}
 135              	.L8:
 136 0072 C046     		.align	2
ARM GAS  C:\Users\Roland\AppData\Local\Temp\ccRBEjZs.s 			page 4


 137              	.L7:
 138 0074 00000150 		.word	1342242816
 139              		.cfi_endproc
 140              	.LFE43:
 141              		.size	LED_Set, .-LED_Set
 142              		.align	1
 143              		.global	LED_Clear
 144              		.syntax unified
 145              		.code	16
 146              		.thumb_func
 147              		.fpu softvfp
 148              		.type	LED_Clear, %function
 149              	LED_Clear:
 150              	.LFB44:
  36:Application/led_funcs.c **** 
  37:Application/led_funcs.c **** 
  38:Application/led_funcs.c **** void LED_Clear(void)
  39:Application/led_funcs.c **** {
 151              		.loc 1 39 0
 152              		.cfi_startproc
 153              		@ args = 0, pretend = 0, frame = 0
 154              		@ frame_needed = 1, uses_anonymous_args = 0
 155 0078 80B5     		push	{r7, lr}
 156              	.LCFI4:
 157              		.cfi_def_cfa_offset 8
 158              		.cfi_offset 7, -8
 159              		.cfi_offset 14, -4
 160 007a 00AF     		add	r7, sp, #0
 161              	.LCFI5:
 162              		.cfi_def_cfa_register 7
  40:Application/led_funcs.c ****   // Clear bit 5 output to 1
  41:Application/led_funcs.c ****   LPC_GPIO1->MASKED_ACCESS[1<<5] = 0;
 163              		.loc 1 41 0
 164 007c 034A     		ldr	r2, .L11
 165 007e 8023     		movs	r3, #128
 166 0080 0021     		movs	r1, #0
 167 0082 D150     		str	r1, [r2, r3]
  42:Application/led_funcs.c ****   return;	
 168              		.loc 1 42 0
 169 0084 C046     		nop
  43:Application/led_funcs.c **** }
 170              		.loc 1 43 0
 171 0086 BD46     		mov	sp, r7
 172              		@ sp needed
 173 0088 80BD     		pop	{r7, pc}
 174              	.L12:
 175 008a C046     		.align	2
 176              	.L11:
 177 008c 00000150 		.word	1342242816
 178              		.cfi_endproc
 179              	.LFE44:
 180              		.size	LED_Clear, .-LED_Clear
 181              	.Letext0:
 182              		.file 2 "c:\\nanoframework_tools\\gnu_arm_toolchain\\8-2018-q4_major\\arm-none-eabi\\include\\mach
 183              		.file 3 "c:\\nanoframework_tools\\gnu_arm_toolchain\\8-2018-q4_major\\arm-none-eabi\\include\\sys\
 184              		.file 4 "./CMSIS/Include/LPC11xx.h"
 185              		.file 5 "./CMSIS/Include/system_LPC11xx.h"
ARM GAS  C:\Users\Roland\AppData\Local\Temp\ccRBEjZs.s 			page 5

