ARM GAS  C:\Users\Roland\AppData\Local\Temp\ccvSN5bJ.s 			page 1


   1              		.cpu cortex-m0
   2              		.eabi_attribute 20, 1
   3              		.eabi_attribute 21, 1
   4              		.eabi_attribute 23, 3
   5              		.eabi_attribute 24, 1
   6              		.eabi_attribute 25, 1
   7              		.eabi_attribute 26, 1
   8              		.eabi_attribute 30, 6
   9              		.eabi_attribute 34, 0
  10              		.eabi_attribute 18, 4
  11              		.file	"uart_funcs.c"
  12              		.text
  13              	.Ltext0:
  14              		.cfi_sections	.debug_frame
  15              		.align	1
  16              		.global	UART_config
  17              		.syntax unified
  18              		.code	16
  19              		.thumb_func
  20              		.fpu softvfp
  21              		.type	UART_config, %function
  22              	UART_config:
  23              	.LFB42:
  24              		.file 1 "Application/uart_funcs.c"
   1:Application/uart_funcs.c **** #include "LPC11xx.h"
   2:Application/uart_funcs.c **** 
   3:Application/uart_funcs.c **** int  uart_status_rxd(void);
   4:Application/uart_funcs.c **** int  uart_status_txd(void);
   5:Application/uart_funcs.c **** uint32_t uart_get_intr_IIR(void);
   6:Application/uart_funcs.c **** char UART_putc(char ch);
   7:Application/uart_funcs.c **** char UART_getc(void);
   8:Application/uart_funcs.c **** void UART_echo(void);
   9:Application/uart_funcs.c **** 
  10:Application/uart_funcs.c **** // Initialize UART to simple polling mode (no interrupt)
  11:Application/uart_funcs.c **** void UART_config(void)
  12:Application/uart_funcs.c **** {
  25              		.loc 1 12 0
  26              		.cfi_startproc
  27              		@ args = 0, pretend = 0, frame = 0
  28              		@ frame_needed = 1, uses_anonymous_args = 0
  29 0000 80B5     		push	{r7, lr}
  30              	.LCFI0:
  31              		.cfi_def_cfa_offset 8
  32              		.cfi_offset 7, -8
  33              		.cfi_offset 14, -4
  34 0002 00AF     		add	r7, sp, #0
  35              	.LCFI1:
  36              		.cfi_def_cfa_register 7
  13:Application/uart_funcs.c ****   // Enable clocks IO config block
  14:Application/uart_funcs.c ****   // Bit 16: IO config
  15:Application/uart_funcs.c ****   LPC_SYSCON->SYSAHBCLKCTRL |=  ((1<<16));
  37              		.loc 1 15 0
  38 0004 284A     		ldr	r2, .L6
  39 0006 8023     		movs	r3, #128
  40 0008 D358     		ldr	r3, [r2, r3]
  41 000a 2749     		ldr	r1, .L6
  42 000c 8022     		movs	r2, #128
ARM GAS  C:\Users\Roland\AppData\Local\Temp\ccvSN5bJ.s 			page 2


  43 000e 5202     		lsls	r2, r2, #9
  44 0010 1343     		orrs	r3, r2
  45 0012 8022     		movs	r2, #128
  46 0014 8B50     		str	r3, [r1, r2]
  16:Application/uart_funcs.c **** 
  17:Application/uart_funcs.c ****   __NOP(); // Short time delay
  47              		.loc 1 17 0
  48              		.syntax divided
  49              	@ 17 "Application/uart_funcs.c" 1
  50 0016 C046     		nop
  51              	@ 0 "" 2
  18:Application/uart_funcs.c ****   __NOP();
  52              		.loc 1 18 0
  53              	@ 18 "Application/uart_funcs.c" 1
  54 0018 C046     		nop
  55              	@ 0 "" 2
  19:Application/uart_funcs.c ****   __NOP();
  56              		.loc 1 19 0
  57              	@ 19 "Application/uart_funcs.c" 1
  58 001a C046     		nop
  59              	@ 0 "" 2
  20:Application/uart_funcs.c **** 
  21:Application/uart_funcs.c ****   // PIO1_6 IO output config
  22:Application/uart_funcs.c ****   //  bit[5]   - Hysteresis (0=disable, 1 =enable)
  23:Application/uart_funcs.c ****   //  bit[4:3] - MODE(0=inactive, 1 =pulldown, 2=pullup, 3=repeater)
  24:Application/uart_funcs.c ****   //  bit[2:0] - Function (0 = IO, 1=RXD, 2=CT32B0_MAT0)
  25:Application/uart_funcs.c ****   LPC_IOCON->PIO1_6 = (0<<5) | (0<<3) | (0x1);
  60              		.loc 1 25 0
  61              		.thumb
  62              		.syntax unified
  63 001c 234A     		ldr	r2, .L6+4
  64 001e A423     		movs	r3, #164
  65 0020 0121     		movs	r1, #1
  66 0022 D150     		str	r1, [r2, r3]
  26:Application/uart_funcs.c **** 
  27:Application/uart_funcs.c ****   // PIO1_7 IO output config
  28:Application/uart_funcs.c ****   //  bit[5]   - Hysteresis (0=disable, 1 =enable)
  29:Application/uart_funcs.c ****   //  bit[4:3] - MODE(0=inactive, 1 =pulldown, 2=pullup, 3=repeater)
  30:Application/uart_funcs.c ****   //  bit[2:0] - Function (0 = IO, 1=TXD, 2=CT32B0_MAT1)
  31:Application/uart_funcs.c ****   LPC_IOCON->PIO1_7 = (0<<5) | (0<<3) | (0x1);
  67              		.loc 1 31 0
  68 0024 214A     		ldr	r2, .L6+4
  69 0026 A823     		movs	r3, #168
  70 0028 0121     		movs	r1, #1
  71 002a D150     		str	r1, [r2, r3]
  32:Application/uart_funcs.c **** 	
  33:Application/uart_funcs.c ****   // Enable clocks IO UART
  34:Application/uart_funcs.c ****   // UART is bit 12
  35:Application/uart_funcs.c ****   LPC_SYSCON->SYSAHBCLKCTRL |=  ((1<<12));
  72              		.loc 1 35 0
  73 002c 1E4A     		ldr	r2, .L6
  74 002e 8023     		movs	r3, #128
  75 0030 D358     		ldr	r3, [r2, r3]
  76 0032 1D49     		ldr	r1, .L6
  77 0034 8022     		movs	r2, #128
  78 0036 5201     		lsls	r2, r2, #5
  79 0038 1343     		orrs	r3, r2
ARM GAS  C:\Users\Roland\AppData\Local\Temp\ccvSN5bJ.s 			page 3


  80 003a 8022     		movs	r2, #128
  81 003c 8B50     		str	r3, [r1, r2]
  36:Application/uart_funcs.c ****   // UART clock divider, divide by 1
  37:Application/uart_funcs.c ****   LPC_SYSCON->UARTCLKDIV = 1;
  82              		.loc 1 37 0
  83 003e 1A4A     		ldr	r2, .L6
  84 0040 9823     		movs	r3, #152
  85 0042 0121     		movs	r1, #1
  86 0044 D150     		str	r1, [r2, r3]
  38:Application/uart_funcs.c **** 
  39:Application/uart_funcs.c ****   // Enable access to divisor latch
  40:Application/uart_funcs.c ****   //  bit[7]    - DLAB (Divisor Latch Access Bit)
  41:Application/uart_funcs.c ****   //  bit[1:0]  - Word length (0= 5bits, 1= 6bits, 2= 7bits, 3= 8bits)
  42:Application/uart_funcs.c ****   LPC_UART->LCR = (1<<7) | 3;
  87              		.loc 1 42 0
  88 0046 1A4B     		ldr	r3, .L6+8
  89 0048 8322     		movs	r2, #131
  90 004a DA60     		str	r2, [r3, #12]
  43:Application/uart_funcs.c **** 	
  44:Application/uart_funcs.c ****   // Baud rate 38400, system clock 48MHz
  45:Application/uart_funcs.c ****   // PCLK / Baud Rate / 16 = 78.125 = (256 x DLM + DLL) x (1 + DivAddVal/MulVal)
  46:Application/uart_funcs.c ****   // ULM = 0
  47:Application/uart_funcs.c ****   // DLL = 67
  48:Application/uart_funcs.c ****   // MulVal = 6
  49:Application/uart_funcs.c ****   // DivAddVal = 1
  50:Application/uart_funcs.c ****   // 67 * (1 + 1/6) = 78.1666
  51:Application/uart_funcs.c ****   LPC_UART->DLM = 0;
  91              		.loc 1 51 0
  92 004c 184B     		ldr	r3, .L6+8
  93 004e 0022     		movs	r2, #0
  94 0050 5A60     		str	r2, [r3, #4]
  52:Application/uart_funcs.c ****   LPC_UART->DLL = 67;
  95              		.loc 1 52 0
  96 0052 174B     		ldr	r3, .L6+8
  97 0054 4322     		movs	r2, #67
  98 0056 1A60     		str	r2, [r3]
  53:Application/uart_funcs.c ****   LPC_UART->FDR = (6 << 4) | (1 << 0);
  99              		.loc 1 53 0
 100 0058 154B     		ldr	r3, .L6+8
 101 005a 6122     		movs	r2, #97
 102 005c 9A62     		str	r2, [r3, #40]
  54:Application/uart_funcs.c **** 
  55:Application/uart_funcs.c ****   // FIFO Control Register
  56:Application/uart_funcs.c ****   //  bit[7:6]  - RX Trigger Level (0 = 1 character, 1 = 4ch, 2=8, 3=14)
  57:Application/uart_funcs.c ****   //  bit[2]    - TX FIFO Reset
  58:Application/uart_funcs.c ****   //  bit[1]    - RX FIFO Reset
  59:Application/uart_funcs.c ****   //  bit[0]    - FIFO Enable
  60:Application/uart_funcs.c ****   LPC_UART->FCR = (0<<6) | 	(0<<2) | (0<<1) | 1;
 103              		.loc 1 60 0
 104 005e 144B     		ldr	r3, .L6+8
 105 0060 0122     		movs	r2, #1
 106 0062 9A60     		str	r2, [r3, #8]
  61:Application/uart_funcs.c **** 
  62:Application/uart_funcs.c ****   // Line Control Register
  63:Application/uart_funcs.c ****   //  bit[7]    - DLAB (Divisor Latch Access Bit)
  64:Application/uart_funcs.c ****   //  bit[6]    - Break Control Enable
  65:Application/uart_funcs.c ****   //  bit[5:4]  - Parity select ( 0=odd, 1=even, 2=force 1 sticky, 3=force 0 stick)
ARM GAS  C:\Users\Roland\AppData\Local\Temp\ccvSN5bJ.s 			page 4


  66:Application/uart_funcs.c ****   //  bit[3]    - Parity Enable
  67:Application/uart_funcs.c ****   //  bit[2]    - stop bit (0 = 1 stop bit, 1 = 2 stop bits)
  68:Application/uart_funcs.c ****   //  bit[1:0]  - Word length (0= 5bits, 1= 6bits, 2= 7bits, 3= 8bits)
  69:Application/uart_funcs.c ****   LPC_UART->LCR = 3;
 107              		.loc 1 69 0
 108 0064 124B     		ldr	r3, .L6+8
 109 0066 0322     		movs	r2, #3
 110 0068 DA60     		str	r2, [r3, #12]
  70:Application/uart_funcs.c ****   
  71:Application/uart_funcs.c ****   // Dummy read of LSR to clear error flags
  72:Application/uart_funcs.c ****   uart_status_rxd();
 111              		.loc 1 72 0
 112 006a FFF7FEFF 		bl	uart_status_rxd
  73:Application/uart_funcs.c **** 	
  74:Application/uart_funcs.c ****   // Interrupt Disable (IER can only be programmed when DLAB = 0)
  75:Application/uart_funcs.c ****   //  bit[0]    - RBR (Receive Data Available Enable)
  76:Application/uart_funcs.c ****   //  bit[1]    - THRE (Transmit Enable)
  77:Application/uart_funcs.c ****   //  bit[2]    - RX Line (Receive Line Interrupt Enable)
  78:Application/uart_funcs.c ****   //  bit[8]    - ABEOIntEn (auto band interrupt)
  79:Application/uart_funcs.c ****   //  bit[9]    - ABTOIntEn (auto band timeout interrupt)
  80:Application/uart_funcs.c ****   LPC_UART->IER = 0;
 113              		.loc 1 80 0
 114 006e 104B     		ldr	r3, .L6+8
 115 0070 0022     		movs	r2, #0
 116 0072 5A60     		str	r2, [r3, #4]
  81:Application/uart_funcs.c **** 	
  82:Application/uart_funcs.c ****   // Wait until TX buffer is empty
  83:Application/uart_funcs.c ****   while (((LPC_UART->LSR >> 6) & 0x1) == 0);
 117              		.loc 1 83 0
 118 0074 C046     		nop
 119              	.L2:
 120              		.loc 1 83 0 is_stmt 0 discriminator 1
 121 0076 0E4B     		ldr	r3, .L6+8
 122 0078 5B69     		ldr	r3, [r3, #20]
 123 007a 9B09     		lsrs	r3, r3, #6
 124 007c 0122     		movs	r2, #1
 125 007e 1340     		ands	r3, r2
 126 0080 F9D0     		beq	.L2
  84:Application/uart_funcs.c ****   // Drain RX buffer
  85:Application/uart_funcs.c ****   while (uart_status_rxd()!=0) UART_getc();
 127              		.loc 1 85 0 is_stmt 1
 128 0082 01E0     		b	.L3
 129              	.L4:
 130              		.loc 1 85 0 is_stmt 0 discriminator 2
 131 0084 FFF7FEFF 		bl	UART_getc
 132              	.L3:
 133              		.loc 1 85 0 discriminator 1
 134 0088 FFF7FEFF 		bl	uart_status_rxd
 135 008c 031E     		subs	r3, r0, #0
 136 008e F9D1     		bne	.L4
  86:Application/uart_funcs.c **** 	
  87:Application/uart_funcs.c ****   // Optional: Turn off clock to I/O Config block to save power
  88:Application/uart_funcs.c ****   LPC_SYSCON->SYSAHBCLKCTRL &=  ~(1<<16);
 137              		.loc 1 88 0 is_stmt 1
 138 0090 054A     		ldr	r2, .L6
 139 0092 8023     		movs	r3, #128
 140 0094 D358     		ldr	r3, [r2, r3]
ARM GAS  C:\Users\Roland\AppData\Local\Temp\ccvSN5bJ.s 			page 5


 141 0096 0449     		ldr	r1, .L6
 142 0098 064A     		ldr	r2, .L6+12
 143 009a 1340     		ands	r3, r2
 144 009c 8022     		movs	r2, #128
 145 009e 8B50     		str	r3, [r1, r2]
  89:Application/uart_funcs.c ****   return;
 146              		.loc 1 89 0
 147 00a0 C046     		nop
  90:Application/uart_funcs.c **** }
 148              		.loc 1 90 0
 149 00a2 BD46     		mov	sp, r7
 150              		@ sp needed
 151 00a4 80BD     		pop	{r7, pc}
 152              	.L7:
 153 00a6 C046     		.align	2
 154              	.L6:
 155 00a8 00800440 		.word	1074036736
 156 00ac 00400440 		.word	1074020352
 157 00b0 00800040 		.word	1073774592
 158 00b4 FFFFFEFF 		.word	-65537
 159              		.cfi_endproc
 160              	.LFE42:
 161              		.size	UART_config, .-UART_config
 162              		.align	1
 163              		.global	uart_status_rxd
 164              		.syntax unified
 165              		.code	16
 166              		.thumb_func
 167              		.fpu softvfp
 168              		.type	uart_status_rxd, %function
 169              	uart_status_rxd:
 170              	.LFB43:
  91:Application/uart_funcs.c **** int  uart_status_rxd(void)
  92:Application/uart_funcs.c **** { // Bit 0 is RDR (Receive Data Ready)
 171              		.loc 1 92 0
 172              		.cfi_startproc
 173              		@ args = 0, pretend = 0, frame = 0
 174              		@ frame_needed = 1, uses_anonymous_args = 0
 175 00b8 80B5     		push	{r7, lr}
 176              	.LCFI2:
 177              		.cfi_def_cfa_offset 8
 178              		.cfi_offset 7, -8
 179              		.cfi_offset 14, -4
 180 00ba 00AF     		add	r7, sp, #0
 181              	.LCFI3:
 182              		.cfi_def_cfa_register 7
  93:Application/uart_funcs.c ****   return (LPC_UART->LSR & 0x1);
 183              		.loc 1 93 0
 184 00bc 034B     		ldr	r3, .L10
 185 00be 5B69     		ldr	r3, [r3, #20]
 186 00c0 1A00     		movs	r2, r3
 187 00c2 0123     		movs	r3, #1
 188 00c4 1340     		ands	r3, r2
  94:Application/uart_funcs.c **** }
 189              		.loc 1 94 0
 190 00c6 1800     		movs	r0, r3
 191 00c8 BD46     		mov	sp, r7
ARM GAS  C:\Users\Roland\AppData\Local\Temp\ccvSN5bJ.s 			page 6


 192              		@ sp needed
 193 00ca 80BD     		pop	{r7, pc}
 194              	.L11:
 195              		.align	2
 196              	.L10:
 197 00cc 00800040 		.word	1073774592
 198              		.cfi_endproc
 199              	.LFE43:
 200              		.size	uart_status_rxd, .-uart_status_rxd
 201              		.align	1
 202              		.global	uart_status_txd
 203              		.syntax unified
 204              		.code	16
 205              		.thumb_func
 206              		.fpu softvfp
 207              		.type	uart_status_txd, %function
 208              	uart_status_txd:
 209              	.LFB44:
  95:Application/uart_funcs.c **** int  uart_status_txd(void)
  96:Application/uart_funcs.c **** {
 210              		.loc 1 96 0
 211              		.cfi_startproc
 212              		@ args = 0, pretend = 0, frame = 0
 213              		@ frame_needed = 1, uses_anonymous_args = 0
 214 00d0 80B5     		push	{r7, lr}
 215              	.LCFI4:
 216              		.cfi_def_cfa_offset 8
 217              		.cfi_offset 7, -8
 218              		.cfi_offset 14, -4
 219 00d2 00AF     		add	r7, sp, #0
 220              	.LCFI5:
 221              		.cfi_def_cfa_register 7
  97:Application/uart_funcs.c ****   // Bit 5 is THRE (Transmit Holding Register Empty)
  98:Application/uart_funcs.c ****   return ((LPC_UART->LSR >> 5) & 0x1);
 222              		.loc 1 98 0
 223 00d4 044B     		ldr	r3, .L14
 224 00d6 5B69     		ldr	r3, [r3, #20]
 225 00d8 5B09     		lsrs	r3, r3, #5
 226 00da 1A00     		movs	r2, r3
 227 00dc 0123     		movs	r3, #1
 228 00de 1340     		ands	r3, r2
  99:Application/uart_funcs.c **** }
 229              		.loc 1 99 0
 230 00e0 1800     		movs	r0, r3
 231 00e2 BD46     		mov	sp, r7
 232              		@ sp needed
 233 00e4 80BD     		pop	{r7, pc}
 234              	.L15:
 235 00e6 C046     		.align	2
 236              	.L14:
 237 00e8 00800040 		.word	1073774592
 238              		.cfi_endproc
 239              	.LFE44:
 240              		.size	uart_status_txd, .-uart_status_txd
 241              		.align	1
 242              		.global	uart_get_intr_IIR
 243              		.syntax unified
ARM GAS  C:\Users\Roland\AppData\Local\Temp\ccvSN5bJ.s 			page 7


 244              		.code	16
 245              		.thumb_func
 246              		.fpu softvfp
 247              		.type	uart_get_intr_IIR, %function
 248              	uart_get_intr_IIR:
 249              	.LFB45:
 100:Application/uart_funcs.c **** 
 101:Application/uart_funcs.c **** uint32_t uart_get_intr_IIR(void)
 102:Application/uart_funcs.c **** {
 250              		.loc 1 102 0
 251              		.cfi_startproc
 252              		@ args = 0, pretend = 0, frame = 0
 253              		@ frame_needed = 1, uses_anonymous_args = 0
 254 00ec 80B5     		push	{r7, lr}
 255              	.LCFI6:
 256              		.cfi_def_cfa_offset 8
 257              		.cfi_offset 7, -8
 258              		.cfi_offset 14, -4
 259 00ee 00AF     		add	r7, sp, #0
 260              	.LCFI7:
 261              		.cfi_def_cfa_register 7
 103:Application/uart_funcs.c ****   return (LPC_UART->IIR);
 262              		.loc 1 103 0
 263 00f0 024B     		ldr	r3, .L18
 264 00f2 9B68     		ldr	r3, [r3, #8]
 104:Application/uart_funcs.c **** }	
 265              		.loc 1 104 0
 266 00f4 1800     		movs	r0, r3
 267 00f6 BD46     		mov	sp, r7
 268              		@ sp needed
 269 00f8 80BD     		pop	{r7, pc}
 270              	.L19:
 271 00fa C046     		.align	2
 272              	.L18:
 273 00fc 00800040 		.word	1073774592
 274              		.cfi_endproc
 275              	.LFE45:
 276              		.size	uart_get_intr_IIR, .-uart_get_intr_IIR
 277              		.align	1
 278              		.global	UART_putc
 279              		.syntax unified
 280              		.code	16
 281              		.thumb_func
 282              		.fpu softvfp
 283              		.type	UART_putc, %function
 284              	UART_putc:
 285              	.LFB46:
 105:Application/uart_funcs.c **** 
 106:Application/uart_funcs.c **** // Output a character to UART0
 107:Application/uart_funcs.c **** char UART_putc(char ch)
 108:Application/uart_funcs.c **** {
 286              		.loc 1 108 0
 287              		.cfi_startproc
 288              		@ args = 0, pretend = 0, frame = 8
 289              		@ frame_needed = 1, uses_anonymous_args = 0
 290 0100 80B5     		push	{r7, lr}
 291              	.LCFI8:
ARM GAS  C:\Users\Roland\AppData\Local\Temp\ccvSN5bJ.s 			page 8


 292              		.cfi_def_cfa_offset 8
 293              		.cfi_offset 7, -8
 294              		.cfi_offset 14, -4
 295 0102 82B0     		sub	sp, sp, #8
 296              	.LCFI9:
 297              		.cfi_def_cfa_offset 16
 298 0104 00AF     		add	r7, sp, #0
 299              	.LCFI10:
 300              		.cfi_def_cfa_register 7
 301 0106 0200     		movs	r2, r0
 302 0108 FB1D     		adds	r3, r7, #7
 303 010a 1A70     		strb	r2, [r3]
 109:Application/uart_funcs.c ****   while (uart_status_txd()==0);
 304              		.loc 1 109 0
 305 010c C046     		nop
 306              	.L21:
 307              		.loc 1 109 0 is_stmt 0 discriminator 1
 308 010e FFF7FEFF 		bl	uart_status_txd
 309 0112 031E     		subs	r3, r0, #0
 310 0114 FBD0     		beq	.L21
 110:Application/uart_funcs.c ****   LPC_UART->THR = (uint32_t)ch;
 311              		.loc 1 110 0 is_stmt 1
 312 0116 054B     		ldr	r3, .L23
 313 0118 FA1D     		adds	r2, r7, #7
 314 011a 1278     		ldrb	r2, [r2]
 315 011c 1A60     		str	r2, [r3]
 111:Application/uart_funcs.c ****   return ch;
 316              		.loc 1 111 0
 317 011e FB1D     		adds	r3, r7, #7
 318 0120 1B78     		ldrb	r3, [r3]
 112:Application/uart_funcs.c **** }
 319              		.loc 1 112 0
 320 0122 1800     		movs	r0, r3
 321 0124 BD46     		mov	sp, r7
 322 0126 02B0     		add	sp, sp, #8
 323              		@ sp needed
 324 0128 80BD     		pop	{r7, pc}
 325              	.L24:
 326 012a C046     		.align	2
 327              	.L23:
 328 012c 00800040 		.word	1073774592
 329              		.cfi_endproc
 330              	.LFE46:
 331              		.size	UART_putc, .-UART_putc
 332              		.align	1
 333              		.global	UART_getc
 334              		.syntax unified
 335              		.code	16
 336              		.thumb_func
 337              		.fpu softvfp
 338              		.type	UART_getc, %function
 339              	UART_getc:
 340              	.LFB47:
 113:Application/uart_funcs.c **** // Read a character from UART0. If no data received yet, wait
 114:Application/uart_funcs.c **** char UART_getc(void)
 115:Application/uart_funcs.c **** { /* Wait if Receive Data Register Full flag is 0 */
 341              		.loc 1 115 0
ARM GAS  C:\Users\Roland\AppData\Local\Temp\ccvSN5bJ.s 			page 9


 342              		.cfi_startproc
 343              		@ args = 0, pretend = 0, frame = 0
 344              		@ frame_needed = 1, uses_anonymous_args = 0
 345 0130 80B5     		push	{r7, lr}
 346              	.LCFI11:
 347              		.cfi_def_cfa_offset 8
 348              		.cfi_offset 7, -8
 349              		.cfi_offset 14, -4
 350 0132 00AF     		add	r7, sp, #0
 351              	.LCFI12:
 352              		.cfi_def_cfa_register 7
 116:Application/uart_funcs.c ****   while (uart_status_rxd()==0);
 353              		.loc 1 116 0
 354 0134 C046     		nop
 355              	.L26:
 356              		.loc 1 116 0 is_stmt 0 discriminator 1
 357 0136 FFF7FEFF 		bl	uart_status_rxd
 358 013a 031E     		subs	r3, r0, #0
 359 013c FBD0     		beq	.L26
 117:Application/uart_funcs.c ****   return LPC_UART->RBR;
 360              		.loc 1 117 0 is_stmt 1
 361 013e 034B     		ldr	r3, .L28
 362 0140 1B68     		ldr	r3, [r3]
 363 0142 DBB2     		uxtb	r3, r3
 118:Application/uart_funcs.c **** }
 364              		.loc 1 118 0
 365 0144 1800     		movs	r0, r3
 366 0146 BD46     		mov	sp, r7
 367              		@ sp needed
 368 0148 80BD     		pop	{r7, pc}
 369              	.L29:
 370 014a C046     		.align	2
 371              	.L28:
 372 014c 00800040 		.word	1073774592
 373              		.cfi_endproc
 374              	.LFE47:
 375              		.size	UART_getc, .-UART_getc
 376              		.align	1
 377              		.global	UART_echo
 378              		.syntax unified
 379              		.code	16
 380              		.thumb_func
 381              		.fpu softvfp
 382              		.type	UART_echo, %function
 383              	UART_echo:
 384              	.LFB48:
 119:Application/uart_funcs.c **** // Echo UART input if there is any
 120:Application/uart_funcs.c **** void UART_echo(void)
 121:Application/uart_funcs.c **** {
 385              		.loc 1 121 0
 386              		.cfi_startproc
 387              		@ args = 0, pretend = 0, frame = 0
 388              		@ frame_needed = 1, uses_anonymous_args = 0
 389 0150 80B5     		push	{r7, lr}
 390              	.LCFI13:
 391              		.cfi_def_cfa_offset 8
 392              		.cfi_offset 7, -8
ARM GAS  C:\Users\Roland\AppData\Local\Temp\ccvSN5bJ.s 			page 10


 393              		.cfi_offset 14, -4
 394 0152 00AF     		add	r7, sp, #0
 395              	.LCFI14:
 396              		.cfi_def_cfa_register 7
 122:Application/uart_funcs.c ****   if (uart_status_rxd()) {
 397              		.loc 1 122 0
 398 0154 FFF7FEFF 		bl	uart_status_rxd
 399 0158 031E     		subs	r3, r0, #0
 400 015a 06D0     		beq	.L33
 123:Application/uart_funcs.c ****     UART_putc(LPC_UART->RBR);}
 401              		.loc 1 123 0
 402 015c 044B     		ldr	r3, .L34
 403 015e 1B68     		ldr	r3, [r3]
 404 0160 DBB2     		uxtb	r3, r3
 405 0162 1800     		movs	r0, r3
 406 0164 FFF7FEFF 		bl	UART_putc
 124:Application/uart_funcs.c ****   return;
 407              		.loc 1 124 0
 408 0168 C046     		nop
 409              	.L33:
 410 016a C046     		nop
 125:Application/uart_funcs.c **** }
 411              		.loc 1 125 0
 412 016c BD46     		mov	sp, r7
 413              		@ sp needed
 414 016e 80BD     		pop	{r7, pc}
 415              	.L35:
 416              		.align	2
 417              	.L34:
 418 0170 00800040 		.word	1073774592
 419              		.cfi_endproc
 420              	.LFE48:
 421              		.size	UART_echo, .-UART_echo
 422              		.align	1
 423              		.global	UART_puts
 424              		.syntax unified
 425              		.code	16
 426              		.thumb_func
 427              		.fpu softvfp
 428              		.type	UART_puts, %function
 429              	UART_puts:
 430              	.LFB49:
 126:Application/uart_funcs.c **** 
 127:Application/uart_funcs.c **** // Uart string output
 128:Application/uart_funcs.c **** void UART_puts(char * mytext)
 129:Application/uart_funcs.c **** {
 431              		.loc 1 129 0
 432              		.cfi_startproc
 433              		@ args = 0, pretend = 0, frame = 16
 434              		@ frame_needed = 1, uses_anonymous_args = 0
 435 0174 90B5     		push	{r4, r7, lr}
 436              	.LCFI15:
 437              		.cfi_def_cfa_offset 12
 438              		.cfi_offset 4, -12
 439              		.cfi_offset 7, -8
 440              		.cfi_offset 14, -4
 441 0176 85B0     		sub	sp, sp, #20
ARM GAS  C:\Users\Roland\AppData\Local\Temp\ccvSN5bJ.s 			page 11


 442              	.LCFI16:
 443              		.cfi_def_cfa_offset 32
 444 0178 00AF     		add	r7, sp, #0
 445              	.LCFI17:
 446              		.cfi_def_cfa_register 7
 447 017a 7860     		str	r0, [r7, #4]
 130:Application/uart_funcs.c ****   char CurrChar;
 131:Application/uart_funcs.c ****   CurrChar = *mytext;
 448              		.loc 1 131 0
 449 017c 0F23     		movs	r3, #15
 450 017e FB18     		adds	r3, r7, r3
 451 0180 7A68     		ldr	r2, [r7, #4]
 452 0182 1278     		ldrb	r2, [r2]
 453 0184 1A70     		strb	r2, [r3]
 132:Application/uart_funcs.c ****   while (CurrChar != (char) 0x0){
 454              		.loc 1 132 0
 455 0186 0CE0     		b	.L37
 456              	.L38:
 133:Application/uart_funcs.c ****     UART_putc(CurrChar);  // Normal data
 457              		.loc 1 133 0
 458 0188 0F24     		movs	r4, #15
 459 018a 3B19     		adds	r3, r7, r4
 460 018c 1B78     		ldrb	r3, [r3]
 461 018e 1800     		movs	r0, r3
 462 0190 FFF7FEFF 		bl	UART_putc
 134:Application/uart_funcs.c ****     mytext++;
 463              		.loc 1 134 0
 464 0194 7B68     		ldr	r3, [r7, #4]
 465 0196 0133     		adds	r3, r3, #1
 466 0198 7B60     		str	r3, [r7, #4]
 135:Application/uart_funcs.c ****     CurrChar = *mytext;
 467              		.loc 1 135 0
 468 019a 3B19     		adds	r3, r7, r4
 469 019c 7A68     		ldr	r2, [r7, #4]
 470 019e 1278     		ldrb	r2, [r2]
 471 01a0 1A70     		strb	r2, [r3]
 472              	.L37:
 132:Application/uart_funcs.c ****     UART_putc(CurrChar);  // Normal data
 473              		.loc 1 132 0
 474 01a2 0F23     		movs	r3, #15
 475 01a4 FB18     		adds	r3, r7, r3
 476 01a6 1B78     		ldrb	r3, [r3]
 477 01a8 002B     		cmp	r3, #0
 478 01aa EDD1     		bne	.L38
 136:Application/uart_funcs.c ****     }
 137:Application/uart_funcs.c ****   return;
 479              		.loc 1 137 0
 480 01ac C046     		nop
 138:Application/uart_funcs.c **** }
 481              		.loc 1 138 0
 482 01ae BD46     		mov	sp, r7
 483 01b0 05B0     		add	sp, sp, #20
 484              		@ sp needed
 485 01b2 90BD     		pop	{r4, r7, pc}
 486              		.cfi_endproc
 487              	.LFE49:
 488              		.size	UART_puts, .-UART_puts
ARM GAS  C:\Users\Roland\AppData\Local\Temp\ccvSN5bJ.s 			page 12


 489              	.Letext0:
 490              		.file 2 "c:\\nanoframework_tools\\gnu_arm_toolchain\\8-2018-q4_major\\arm-none-eabi\\include\\mach
 491              		.file 3 "c:\\nanoframework_tools\\gnu_arm_toolchain\\8-2018-q4_major\\arm-none-eabi\\include\\sys\
 492              		.file 4 "./CMSIS/Include/LPC11xx.h"
 493              		.file 5 "./CMSIS/Include/system_LPC11xx.h"