ARM GAS  C:\Users\Roland\AppData\Local\Temp\ccnoFQ8B.s 			page 1


   1              		.cpu cortex-m0
   2              		.eabi_attribute 20, 1
   3              		.eabi_attribute 21, 1
   4              		.eabi_attribute 23, 3
   5              		.eabi_attribute 24, 1
   6              		.eabi_attribute 25, 1
   7              		.eabi_attribute 26, 1
   8              		.eabi_attribute 30, 6
   9              		.eabi_attribute 34, 0
  10              		.eabi_attribute 18, 4
  11              		.file	"uart_echo.c"
  12              		.text
  13              	.Ltext0:
  14              		.cfi_sections	.debug_frame
  15              		.comm	ctr,4,4
  16              		.section	.rodata
  17              		.align	2
  18              	.LC1:
  19 0000 53696D70 		.ascii	"Simple UART echo test\015\012\000"
  19      6C652055 
  19      41525420 
  19      6563686F 
  19      20746573 
  20              		.align	2
  21              	.LC3:
  22 0018 4F6E0D0A 		.ascii	"On\015\012\000"
  22      00
  23 001d 000000   		.align	2
  24              	.LC5:
  25 0020 4F66660D 		.ascii	"Off\015\012\000"
  25      0A00
  26              		.text
  27              		.align	1
  28              		.global	main
  29              		.syntax unified
  30              		.code	16
  31              		.thumb_func
  32              		.fpu softvfp
  33              		.type	main, %function
  34              	main:
  35              	.LFB42:
  36              		.file 1 "Application/uart_echo.c"
   1:Application/uart_echo.c **** // Blinks a LED (GPIO)
   2:Application/uart_echo.c **** // Sends messages via Uart
   3:Application/uart_echo.c **** // Receives and returns messages via Uart
   4:Application/uart_echo.c **** 
   5:Application/uart_echo.c **** 
   6:Application/uart_echo.c **** 
   7:Application/uart_echo.c **** // UART TXD is PIO_1_7
   8:Application/uart_echo.c **** // UART RXD is PIO_1_6
   9:Application/uart_echo.c **** // System running at 48MHz
  10:Application/uart_echo.c **** // Baud rate 38400 at system clock 48MHz
  11:Application/uart_echo.c **** 
  12:Application/uart_echo.c **** #include <LPC11xx.h>
  13:Application/uart_echo.c **** 
  14:Application/uart_echo.c **** // LED functions
  15:Application/uart_echo.c **** extern void LED_Config(void);
ARM GAS  C:\Users\Roland\AppData\Local\Temp\ccnoFQ8B.s 			page 2


  16:Application/uart_echo.c **** extern void LED_Set(void);
  17:Application/uart_echo.c **** extern void LED_Clear(void);
  18:Application/uart_echo.c **** 
  19:Application/uart_echo.c **** 
  20:Application/uart_echo.c **** //const uint32_t led_mask[] = {1UL << 18, 1UL << 19, 1UL << 1};
  21:Application/uart_echo.c **** // LED #0, #1 are port B, LED #2 is port D
  22:Application/uart_echo.c **** 
  23:Application/uart_echo.c **** // UART functions
  24:Application/uart_echo.c **** extern void UART_config(void);
  25:Application/uart_echo.c **** extern char UART_putc(char ch);
  26:Application/uart_echo.c **** extern char UART_getc(void);
  27:Application/uart_echo.c **** extern void UART_echo(void);
  28:Application/uart_echo.c **** extern void UART_puts(char * mytext);
  29:Application/uart_echo.c **** 
  30:Application/uart_echo.c **** void   Delay(uint32_t nCount);
  31:Application/uart_echo.c **** 
  32:Application/uart_echo.c **** int32_t ctr;
  33:Application/uart_echo.c **** 
  34:Application/uart_echo.c **** int main(void)
  35:Application/uart_echo.c **** {
  37              		.loc 1 35 0
  38              		.cfi_startproc
  39              		@ args = 0, pretend = 0, frame = 0
  40              		@ frame_needed = 1, uses_anonymous_args = 0
  41 0000 80B5     		push	{r7, lr}
  42              	.LCFI0:
  43              		.cfi_def_cfa_offset 8
  44              		.cfi_offset 7, -8
  45              		.cfi_offset 14, -4
  46 0002 00AF     		add	r7, sp, #0
  47              	.LCFI1:
  48              		.cfi_def_cfa_register 7
  36:Application/uart_echo.c **** 	ctr = 0;
  49              		.loc 1 36 0
  50 0004 134B     		ldr	r3, .L3
  51 0006 0022     		movs	r2, #0
  52 0008 1A60     		str	r2, [r3]
  37:Application/uart_echo.c ****   
  38:Application/uart_echo.c ****   // Configure LED outputs
  39:Application/uart_echo.c ****   LED_Config();
  53              		.loc 1 39 0
  54 000a FFF7FEFF 		bl	LED_Config
  40:Application/uart_echo.c **** 
  41:Application/uart_echo.c **** 	// Initialize UART
  42:Application/uart_echo.c ****   UART_config();
  55              		.loc 1 42 0
  56 000e FFF7FEFF 		bl	UART_config
  43:Application/uart_echo.c ****   
  44:Application/uart_echo.c **** 	UART_puts("Simple UART echo test\r\n");
  57              		.loc 1 44 0
  58 0012 114B     		ldr	r3, .L3+4
  59 0014 1800     		movs	r0, r3
  60 0016 FFF7FEFF 		bl	UART_puts
  61              	.L2:
  45:Application/uart_echo.c **** 	
  46:Application/uart_echo.c **** 
  47:Application/uart_echo.c **** #define LOOP_COUNT 0x80000
ARM GAS  C:\Users\Roland\AppData\Local\Temp\ccnoFQ8B.s 			page 3


  48:Application/uart_echo.c ****   while(1){
  49:Application/uart_echo.c **** 
  50:Application/uart_echo.c ****     __NOP();
  62              		.loc 1 50 0 discriminator 1
  63              		.syntax divided
  64              	@ 50 "Application/uart_echo.c" 1
  65 001a C046     		nop
  66              	@ 0 "" 2
  51:Application/uart_echo.c **** 		
  52:Application/uart_echo.c **** 	 Delay(LOOP_COUNT);
  67              		.loc 1 52 0 discriminator 1
  68              		.thumb
  69              		.syntax unified
  70 001c 8023     		movs	r3, #128
  71 001e 1B03     		lsls	r3, r3, #12
  72 0020 1800     		movs	r0, r3
  73 0022 FFF7FEFF 		bl	Delay
  53:Application/uart_echo.c **** 	 ctr++;
  74              		.loc 1 53 0 discriminator 1
  75 0026 0B4B     		ldr	r3, .L3
  76 0028 1B68     		ldr	r3, [r3]
  77 002a 5A1C     		adds	r2, r3, #1
  78 002c 094B     		ldr	r3, .L3
  79 002e 1A60     		str	r2, [r3]
  54:Application/uart_echo.c ****    LED_Set();
  80              		.loc 1 54 0 discriminator 1
  81 0030 FFF7FEFF 		bl	LED_Set
  55:Application/uart_echo.c **** 	
  56:Application/uart_echo.c **** 		
  57:Application/uart_echo.c **** 	 UART_puts("On\r\n");
  82              		.loc 1 57 0 discriminator 1
  83 0034 094B     		ldr	r3, .L3+8
  84 0036 1800     		movs	r0, r3
  85 0038 FFF7FEFF 		bl	UART_puts
  58:Application/uart_echo.c ****    Delay(LOOP_COUNT);
  86              		.loc 1 58 0 discriminator 1
  87 003c 8023     		movs	r3, #128
  88 003e 1B03     		lsls	r3, r3, #12
  89 0040 1800     		movs	r0, r3
  90 0042 FFF7FEFF 		bl	Delay
  59:Application/uart_echo.c **** 		
  60:Application/uart_echo.c **** 		
  61:Application/uart_echo.c ****    LED_Clear();
  91              		.loc 1 61 0 discriminator 1
  92 0046 FFF7FEFF 		bl	LED_Clear
  62:Application/uart_echo.c **** 	 UART_puts("Off\r\n");
  93              		.loc 1 62 0 discriminator 1
  94 004a 054B     		ldr	r3, .L3+12
  95 004c 1800     		movs	r0, r3
  96 004e FFF7FEFF 		bl	UART_puts
  50:Application/uart_echo.c **** 		
  97              		.loc 1 50 0 discriminator 1
  98 0052 E2E7     		b	.L2
  99              	.L4:
 100              		.align	2
 101              	.L3:
 102 0054 00000000 		.word	ctr
ARM GAS  C:\Users\Roland\AppData\Local\Temp\ccnoFQ8B.s 			page 4


 103 0058 00000000 		.word	.LC1
 104 005c 18000000 		.word	.LC3
 105 0060 20000000 		.word	.LC5
 106              		.cfi_endproc
 107              	.LFE42:
 108              		.size	main, .-main
 109              		.align	1
 110              		.global	Delay
 111              		.syntax unified
 112              		.code	16
 113              		.thumb_func
 114              		.fpu softvfp
 115              		.type	Delay, %function
 116              	Delay:
 117              	.LFB43:
  63:Application/uart_echo.c ****    };
  64:Application/uart_echo.c **** }
  65:Application/uart_echo.c **** 
  66:Application/uart_echo.c **** void Delay(uint32_t nCount)
  67:Application/uart_echo.c **** {
 118              		.loc 1 67 0
 119              		.cfi_startproc
 120              		@ args = 0, pretend = 0, frame = 8
 121              		@ frame_needed = 1, uses_anonymous_args = 0
 122 0064 80B5     		push	{r7, lr}
 123              	.LCFI2:
 124              		.cfi_def_cfa_offset 8
 125              		.cfi_offset 7, -8
 126              		.cfi_offset 14, -4
 127 0066 82B0     		sub	sp, sp, #8
 128              	.LCFI3:
 129              		.cfi_def_cfa_offset 16
 130 0068 00AF     		add	r7, sp, #0
 131              	.LCFI4:
 132              		.cfi_def_cfa_register 7
 133 006a 7860     		str	r0, [r7, #4]
  68:Application/uart_echo.c ****   while(nCount--)
 134              		.loc 1 68 0
 135 006c 02E0     		b	.L6
 136              	.L7:
  69:Application/uart_echo.c ****   {
  70:Application/uart_echo.c **** 		// Echo UART inputs if any
  71:Application/uart_echo.c ****   __NOP();
 137              		.loc 1 71 0
 138              		.syntax divided
 139              	@ 71 "Application/uart_echo.c" 1
 140 006e C046     		nop
 141              	@ 0 "" 2
  72:Application/uart_echo.c **** 		UART_echo();
 142              		.loc 1 72 0
 143              		.thumb
 144              		.syntax unified
 145 0070 FFF7FEFF 		bl	UART_echo
 146              	.L6:
  68:Application/uart_echo.c ****   while(nCount--)
 147              		.loc 1 68 0
 148 0074 7B68     		ldr	r3, [r7, #4]
ARM GAS  C:\Users\Roland\AppData\Local\Temp\ccnoFQ8B.s 			page 5


 149 0076 5A1E     		subs	r2, r3, #1
 150 0078 7A60     		str	r2, [r7, #4]
 151 007a 002B     		cmp	r3, #0
 152 007c F7D1     		bne	.L7
  73:Application/uart_echo.c ****   }
  74:Application/uart_echo.c **** }
 153              		.loc 1 74 0
 154 007e C046     		nop
 155 0080 BD46     		mov	sp, r7
 156 0082 02B0     		add	sp, sp, #8
 157              		@ sp needed
 158 0084 80BD     		pop	{r7, pc}
 159              		.cfi_endproc
 160              	.LFE43:
 161              		.size	Delay, .-Delay
 162              	.Letext0:
 163              		.file 2 "c:\\nanoframework_tools\\gnu_arm_toolchain\\8-2018-q4_major\\arm-none-eabi\\include\\mach
 164              		.file 3 "c:\\nanoframework_tools\\gnu_arm_toolchain\\8-2018-q4_major\\arm-none-eabi\\include\\sys\
 165              		.file 4 "./CMSIS/Include/system_LPC11xx.h"